target datalayout = "e-m:e-p270:32:32-p271:32:32-p272:64:64-i64:64-i128:128-f80:128-n8:16:32:64-S128"
target triple = "x86_64-pc-linux-gnu"

%"class.base::HistogramSamples" = type { ptr, %"struct.base::HistogramSamples::Metadata", ptr }
%"struct.base::HistogramSamples::Metadata" = type <{ i64, i64, i32, [4 x i8] }>

; Function Attrs: mustprogress nounwind uwtable
define linkonce_odr void @_ZN4base16HistogramSamples8MetadataC2Ev(ptr noundef nonnull align 8 dereferenceable(20) %0) unnamed_addr #1 comdat align 2 {
  %2 = alloca ptr, align 8
  store ptr %0, ptr %2, align 8, !tbaa !18
  %3 = load ptr, ptr %2, align 8
  %4 = getelementptr inbounds nuw %"struct.base::HistogramSamples::Metadata", ptr %3, i32 0, i32 0
  store i64 0, ptr %4, align 8, !tbaa !17
  %5 = getelementptr inbounds nuw %"struct.base::HistogramSamples::Metadata", ptr %3, i32 0, i32 1
  store i64 0, ptr %5, align 8, !tbaa !19
  %6 = getelementptr inbounds nuw %"struct.base::HistogramSamples::Metadata", ptr %3, i32 0, i32 2
  store i32 0, ptr %6, align 8, !tbaa !20
  ret void
}

; Function Attrs: mustprogress uwtable
define void @_ZN4base16HistogramSamplesC2EmPNS0_8MetadataE(ptr noundef nonnull align 8 dereferenceable(40) %0, i64 noundef %1, ptr noundef %2) unnamed_addr #0 align 2 {
  %4 = alloca ptr, align 8
  %5 = alloca i64, align 8
  %6 = alloca ptr, align 8
  store ptr %0, ptr %4, align 8, !tbaa !3
  store i64 %1, ptr %5, align 8, !tbaa !8
  store ptr %2, ptr %6, align 8, !tbaa !18
  %7 = load ptr, ptr %4, align 8
  store ptr getelementptr inbounds inrange(-16, 88) ({ [13 x ptr] }, ptr @_ZTVN4base16HistogramSamplesE, i32 0, i32 0, i32 2), ptr %7, align 8, !tbaa !10
  %8 = getelementptr inbounds nuw %"class.base::HistogramSamples", ptr %7, i32 0, i32 1
  call void @_ZN4base16HistogramSamples8MetadataC2Ev(ptr noundef nonnull align 8 dereferenceable(20) %8)
  %9 = getelementptr inbounds nuw %"class.base::HistogramSamples", ptr %7, i32 0, i32 2
  %10 = load ptr, ptr %6, align 8, !tbaa !18
  store ptr %10, ptr %9, align 8, !tbaa !12
  %11 = getelementptr inbounds nuw %"class.base::HistogramSamples", ptr %7, i32 0, i32 2
  %12 = load ptr, ptr %11, align 8, !tbaa !12
  %13 = getelementptr inbounds nuw %"struct.base::HistogramSamples::Metadata", ptr %12, i32 0, i32 0
  %14 = load i64, ptr %13, align 8, !tbaa !17
  %15 = icmp ne i64 %14, 0
  br i1 %15, label %21, label %16

16:                                               ; preds = %3
  %17 = load i64, ptr %5, align 8, !tbaa !8
  %18 = getelementptr inbounds nuw %"class.base::HistogramSamples", ptr %7, i32 0, i32 2
  %19 = load ptr, ptr %18, align 8, !tbaa !12
  %20 = getelementptr inbounds nuw %"struct.base::HistogramSamples::Metadata", ptr %19, i32 0, i32 0
  store i64 %17, ptr %20, align 8, !tbaa !17
  br label %21

21:                                               ; preds = %16, %3
  ret void
}