; Function Attrs: mustprogress nofree norecurse nosync nounwind willreturn memory(argmem: readwrite) uwtable
define void @_ZN4base16HistogramSamplesC2EmPNS0_8MetadataE(ptr noundef nonnull writeonly align 8 captures(none) dereferenceable(40) initializes((0, 28), (32, 40)) %0, i64 noundef %1, ptr noundef %2) unnamed_addr #1 align 2 {
  store ptr getelementptr inbounds nuw inrange(-16, 88) (i8, ptr @_ZTVN4base16HistogramSamplesE, i64 16), ptr %0, align 8, !tbaa !3
  %4 = getelementptr inbounds nuw i8, ptr %0, i64 8
  tail call void @llvm.memset.p0.i64(ptr noundef nonnull align 8 dereferenceable(20) %4, i8 0, i64 20, i1 false)
  %5 = getelementptr inbounds nuw i8, ptr %0, i64 32
  store ptr %2, ptr %5, align 8, !tbaa !6
  %6 = load i64, ptr %2, align 8, !tbaa !14
  %.not = icmp eq i64 %6, 0
  br i1 %.not, label %7, label %8

7:                                                ; preds = %3
  store i64 %1, ptr %2, align 8, !tbaa !14
  br label %8

8:                                                ; preds = %7, %3
  ret void
}